target datalayout = "e-m:e-p270:32:32-p271:32:32-p272:64:64-i64:64-i128:128-f80:128-n8:16:32:64-S128"
target triple = "x86_64-pc-linux-gnu"

@.str.52 = private unnamed_addr constant [68 x i8] c"Valid units for this parameter are \22B\22, \22kB\22, \22MB\22, \22GB\22, and \22TB\22.\00", align 1
@.str.53 = private unnamed_addr constant [73 x i8] c"Valid units for this parameter are \22us\22, \22ms\22, \22s\22, \22min\22, \22h\22, and \22d\22.\00", align 1
@.str.54 = private unnamed_addr constant [29 x i8] c"Value exceeds integer range.\00", align 1

; Function Attrs: nounwind uwtable
define dso_local zeroext i1 @parse_int(ptr noundef %0, ptr noundef %1, i32 noundef %2, ptr noundef %3) #0 {
  %5 = alloca i1, align 1
  %6 = alloca ptr, align 8
  %7 = alloca ptr, align 8
  %8 = alloca i32, align 4
  %9 = alloca ptr, align 8
  %10 = alloca double, align 8
  %11 = alloca ptr, align 8
  %12 = alloca i32, align 4
  store ptr %0, ptr %6, align 8
  store ptr %1, ptr %7, align 8
  store i32 %2, ptr %8, align 4
  store ptr %3, ptr %9, align 8
  call void @llvm.lifetime.start.p0(i64 8, ptr %10) #16
  call void @llvm.lifetime.start.p0(i64 8, ptr %11) #16
  %13 = load ptr, ptr %7, align 8
  %14 = icmp ne ptr %13, null
  br i1 %14, label %15, label %17

15:                                               ; preds = %4
  %16 = load ptr, ptr %7, align 8
  store i32 0, ptr %16, align 4
  br label %17

17:                                               ; preds = %15, %4
  %18 = load ptr, ptr %9, align 8
  %19 = icmp ne ptr %18, null
  br i1 %19, label %20, label %22

20:                                               ; preds = %17
  %21 = load ptr, ptr %9, align 8
  store ptr null, ptr %21, align 8
  br label %22

22:                                               ; preds = %20, %17
  %23 = call ptr @__errno_location() #19
  store i32 0, ptr %23, align 4
  %24 = load ptr, ptr %6, align 8
  %25 = call i64 @strtol(ptr noundef %24, ptr noundef %11, i32 noundef 0) #16
  %26 = sitofp i64 %25 to double
  store double %26, ptr %10, align 8
  %27 = load ptr, ptr %11, align 8
  %28 = load i8, ptr %27, align 1
  %29 = sext i8 %28 to i32
  %30 = icmp eq i32 %29, 46
  br i1 %30, label %45, label %31

31:                                               ; preds = %22
  %32 = load ptr, ptr %11, align 8
  %33 = load i8, ptr %32, align 1
  %34 = sext i8 %33 to i32
  %35 = icmp eq i32 %34, 101
  br i1 %35, label %45, label %36

36:                                               ; preds = %31
  %37 = load ptr, ptr %11, align 8
  %38 = load i8, ptr %37, align 1
  %39 = sext i8 %38 to i32
  %40 = icmp eq i32 %39, 69
  br i1 %40, label %45, label %41

41:                                               ; preds = %36
  %42 = call ptr @__errno_location() #19
  %43 = load i32, ptr %42, align 4
  %44 = icmp eq i32 %43, 34
  br i1 %44, label %45, label %49

45:                                               ; preds = %41, %36, %31, %22
  %46 = call ptr @__errno_location() #19
  store i32 0, ptr %46, align 4
  %47 = load ptr, ptr %6, align 8
  %48 = call double @strtod(ptr noundef %47, ptr noundef %11) #16
  store double %48, ptr %10, align 8
  br label %49

49:                                               ; preds = %45, %41
  %50 = load ptr, ptr %11, align 8
  %51 = load ptr, ptr %6, align 8
  %52 = icmp eq ptr %50, %51
  br i1 %52, label %57, label %53

53:                                               ; preds = %49
  %54 = call ptr @__errno_location() #19
  %55 = load i32, ptr %54, align 4
  %56 = icmp eq i32 %55, 34
  br i1 %56, label %57, label %58

57:                                               ; preds = %53, %49
  store i1 false, ptr %5, align 1
  store i32 1, ptr %12, align 4
  br label %130

58:                                               ; preds = %53
  %59 = load double, ptr %10, align 8
  %60 = call i1 @llvm.is.fpclass.f64(double %59, i32 3)
  br i1 %60, label %61, label %62

61:                                               ; preds = %58
  store i1 false, ptr %5, align 1
  store i32 1, ptr %12, align 4
  br label %130

62:                                               ; preds = %58
  br label %63

63:                                               ; preds = %75, %62
  %64 = call ptr @__ctype_b_loc() #19
  %65 = load ptr, ptr %64, align 8
  %66 = load ptr, ptr %11, align 8
  %67 = load i8, ptr %66, align 1
  %68 = zext i8 %67 to i32
  %69 = sext i32 %68 to i64
  %70 = getelementptr inbounds i16, ptr %65, i64 %69
  %71 = load i16, ptr %70, align 2
  %72 = zext i16 %71 to i32
  %73 = and i32 %72, 8192
  %74 = icmp ne i32 %73, 0
  br i1 %74, label %75, label %78

75:                                               ; preds = %63
  %76 = load ptr, ptr %11, align 8
  %77 = getelementptr inbounds nuw i8, ptr %76, i32 1
  store ptr %77, ptr %11, align 8
  br label %63, !llvm.loop !38

78:                                               ; preds = %63
  %79 = load ptr, ptr %11, align 8
  %80 = load i8, ptr %79, align 1
  %81 = sext i8 %80 to i32
  %82 = icmp ne i32 %81, 0
  br i1 %82, label %83, label %108

83:                                               ; preds = %78
  %84 = load i32, ptr %8, align 4
  %85 = and i32 %84, 2130706432
  %86 = icmp eq i32 %85, 0
  br i1 %86, label %87, label %88

87:                                               ; preds = %83
  store i1 false, ptr %5, align 1
  store i32 1, ptr %12, align 4
  br label %130

88:                                               ; preds = %83
  %89 = load double, ptr %10, align 8
  %90 = load ptr, ptr %11, align 8
  %91 = load i32, ptr %8, align 4
  %92 = and i32 %91, 2130706432
  %93 = call zeroext i1 @convert_to_base_unit(double noundef %89, ptr noundef %90, i32 noundef %92, ptr noundef %10)
  br i1 %93, label %107, label %94

94:                                               ; preds = %88
  %95 = load ptr, ptr %9, align 8
  %96 = icmp ne ptr %95, null
  br i1 %96, label %97, label %106

97:                                               ; preds = %94
  %98 = load i32, ptr %8, align 4
  %99 = and i32 %98, 251658240
  %100 = icmp ne i32 %99, 0
  br i1 %100, label %101, label %103

101:                                              ; preds = %97
  %102 = load ptr, ptr %9, align 8
  store ptr @.str.52, ptr %102, align 8
  br label %105

103:                                              ; preds = %97
  %104 = load ptr, ptr %9, align 8
  store ptr @.str.53, ptr %104, align 8
  br label %105

105:                                              ; preds = %103, %101
  br label %106

106:                                              ; preds = %105, %94
  store i1 false, ptr %5, align 1
  store i32 1, ptr %12, align 4
  br label %130

107:                                              ; preds = %88
  br label %108

108:                                              ; preds = %107, %78
  %109 = load double, ptr %10, align 8
  %110 = call double @llvm.rint.f64(double %109)
  store double %110, ptr %10, align 8
  %111 = load double, ptr %10, align 8
  %112 = fcmp ogt double %111, 0x41DFFFFFFFC00000
  br i1 %112, label %116, label %113

113:                                              ; preds = %108
  %114 = load double, ptr %10, align 8
  %115 = fcmp olt double %114, 0xC1E0000000000000
  br i1 %115, label %116, label %122

116:                                              ; preds = %113, %108
  %117 = load ptr, ptr %9, align 8
  %118 = icmp ne ptr %117, null
  br i1 %118, label %119, label %121

119:                                              ; preds = %116
  %120 = load ptr, ptr %9, align 8
  store ptr @.str.54, ptr %120, align 8
  br label %121

121:                                              ; preds = %119, %116
  store i1 false, ptr %5, align 1
  store i32 1, ptr %12, align 4
  br label %130

122:                                              ; preds = %113
  %123 = load ptr, ptr %7, align 8
  %124 = icmp ne ptr %123, null
  br i1 %124, label %125, label %129

125:                                              ; preds = %122
  %126 = load double, ptr %10, align 8
  %127 = fptosi double %126 to i32
  %128 = load ptr, ptr %7, align 8
  store i32 %127, ptr %128, align 4
  br label %129

129:                                              ; preds = %125, %122
  store i1 true, ptr %5, align 1
  store i32 1, ptr %12, align 4
  br label %130

130:                                              ; preds = %129, %121, %106, %87, %61, %57
  call void @llvm.lifetime.end.p0(i64 8, ptr %11) #16
  call void @llvm.lifetime.end.p0(i64 8, ptr %10) #16
  %131 = load i1, ptr %5, align 1
  ret i1 %131
}