; Function Attrs: nofree nounwind uwtable
define dso_local noundef zeroext i1 @parse_int(ptr noundef %0, ptr noundef writeonly captures(address_is_null) %1, i32 noundef %2, ptr noundef writeonly captures(address_is_null) %3) local_unnamed_addr #14 {
  %5 = alloca double, align 8
  %6 = alloca ptr, align 8
  call void @llvm.lifetime.start.p0(i64 8, ptr nonnull %5) #29
  call void @llvm.lifetime.start.p0(i64 8, ptr nonnull %6) #29
  %.not = icmp eq ptr %1, null
  br i1 %.not, label %8, label %7

7:                                                ; preds = %4
  store i32 0, ptr %1, align 4
  br label %8

8:                                                ; preds = %7, %4
  %.not24 = icmp eq ptr %3, null
  br i1 %.not24, label %10, label %9

9:                                                ; preds = %8
  store ptr null, ptr %3, align 8
  br label %10

10:                                               ; preds = %9, %8
  %11 = tail call ptr @__errno_location() #32
  store i32 0, ptr %11, align 4
  %12 = call i64 @strtol(ptr noundef %0, ptr noundef nonnull %6, i32 noundef 0) #29
  %13 = sitofp i64 %12 to double
  store double %13, ptr %5, align 8
  %14 = load ptr, ptr %6, align 8
  %15 = load i8, ptr %14, align 1
  switch i8 %15, label %16 [
    i8 46, label %19
    i8 101, label %19
    i8 69, label %19
  ]

16:                                               ; preds = %10
  %17 = load i32, ptr %11, align 4
  %18 = icmp eq i32 %17, 34
  br i1 %18, label %19, label %21

19:                                               ; preds = %10, %10, %10, %16
  store i32 0, ptr %11, align 4
  %20 = call double @strtod(ptr noundef %0, ptr noundef nonnull %6) #29
  store double %20, ptr %5, align 8
  %.pre = load ptr, ptr %6, align 8
  br label %21

21:                                               ; preds = %19, %16
  %22 = phi double [ %20, %19 ], [ %13, %16 ]
  %.promoted = phi ptr [ %.pre, %19 ], [ %14, %16 ]
  %23 = icmp eq ptr %.promoted, %0
  br i1 %23, label %59, label %24

24:                                               ; preds = %21
  %25 = load i32, ptr %11, align 4
  %26 = icmp eq i32 %25, 34
  %27 = fcmp uno double %22, 0.000000e+00
  %or.cond29 = select i1 %26, i1 true, i1 %27
  br i1 %or.cond29, label %59, label %.preheader

.preheader:                                       ; preds = %24
  %28 = tail call ptr @__ctype_b_loc() #32
  %29 = load ptr, ptr %28, align 8
  br label %30

30:                                               ; preds = %30, %.preheader
  %31 = phi ptr [ %.promoted, %.preheader ], [ %37, %30 ]
  %32 = load i8, ptr %31, align 1
  %33 = zext i8 %32 to i64
  %34 = getelementptr inbounds nuw i16, ptr %29, i64 %33
  %35 = load i16, ptr %34, align 2
  %36 = and i16 %35, 8192
  %.not25 = icmp eq i16 %36, 0
  %37 = getelementptr inbounds nuw i8, ptr %31, i64 1
  br i1 %.not25, label %38, label %30, !llvm.loop !39

38:                                               ; preds = %30
  %.not26 = icmp eq i8 %32, 0
  br i1 %.not26, label %49, label %39

39:                                               ; preds = %38
  %40 = and i32 %2, 2130706432
  %41 = icmp eq i32 %40, 0
  br i1 %41, label %59, label %42

42:                                               ; preds = %39
  %43 = call fastcc zeroext i1 @convert_to_base_unit(double noundef %22, ptr noundef nonnull %31, i32 noundef %40, ptr noundef %5)
  br i1 %43, label %._crit_edge, label %44

._crit_edge:                                      ; preds = %42
  %.pre33 = load double, ptr %5, align 8
  br label %49

44:                                               ; preds = %42
  br i1 %.not24, label %59, label %45

45:                                               ; preds = %44
  %46 = and i32 %2, 251658240
  %.not27 = icmp eq i32 %46, 0
  br i1 %.not27, label %48, label %47

47:                                               ; preds = %45
  store ptr @.str.52, ptr %3, align 8
  br label %59

48:                                               ; preds = %45
  store ptr @.str.53, ptr %3, align 8
  br label %59

49:                                               ; preds = %._crit_edge, %38
  %50 = phi double [ %.pre33, %._crit_edge ], [ %22, %38 ]
  %51 = tail call double @llvm.rint.f64(double %50)
  %52 = fcmp ogt double %51, 0x41DFFFFFFFC00000
  %53 = fcmp olt double %51, 0xC1E0000000000000
  %or.cond = or i1 %52, %53
  br i1 %or.cond, label %54, label %56

54:                                               ; preds = %49
  br i1 %.not24, label %59, label %55

55:                                               ; preds = %54
  store ptr @.str.54, ptr %3, align 8
  br label %59

56:                                               ; preds = %49
  br i1 %.not, label %59, label %57

57:                                               ; preds = %56
  %58 = fptosi double %51 to i32
  store i32 %58, ptr %1, align 4
  br label %59

59:                                               ; preds = %56, %57, %54, %55, %44, %48, %47, %39, %21, %24
  %.0 = phi i1 [ false, %24 ], [ false, %21 ], [ false, %39 ], [ false, %47 ], [ false, %48 ], [ false, %44 ], [ false, %55 ], [ false, %54 ], [ true, %57 ], [ true, %56 ]
  call void @llvm.lifetime.end.p0(i64 8, ptr nonnull %6) #29
  call void @llvm.lifetime.end.p0(i64 8, ptr nonnull %5) #29
  ret i1 %.0
}